; ModuleID = '46/2156.c'
source_filename = "46/2156.c"
target datalayout = "e-m:e-p270:32:32-p271:32:32-p272:64:64-i64:64-f80:128-n8:16:32:64-S128"
target triple = "x86_64-pc-linux-gnu"

@.str = private unnamed_addr constant [5 x i8] c"%d%d\00", align 1
@.str.1 = private unnamed_addr constant [3 x i8] c"%d\00", align 1
@.str.2 = private unnamed_addr constant [2 x i8] c"\0A\00", align 1

; Function Attrs: noinline nounwind uwtable
define dso_local i32 @main() #0 {
  %1 = alloca i32, align 4
  %2 = alloca [100 x [100 x i32]], align 16
  %3 = alloca i32, align 4
  %4 = alloca i32, align 4
  %5 = alloca i32, align 4
  %6 = alloca i32, align 4
  %7 = alloca i32, align 4
  %8 = alloca [100 x i32]*, align 8
  store i32 0, i32* %1, align 4
  store i32 0, i32* %7, align 4
  %9 = getelementptr inbounds [100 x [100 x i32]], [100 x [100 x i32]]* %2, i64 0, i64 0
  store [100 x i32]* %9, [100 x i32]** %8, align 8
  %10 = call i32 (i8*, ...) @__isoc99_scanf(i8* getelementptr inbounds ([5 x i8], [5 x i8]* @.str, i64 0, i64 0), i32* %3, i32* %4)
  store i32 0, i32* %5, align 4
  br label %11

11:                                               ; preds = %32, %0
  %12 = load i32, i32* %5, align 4
  %13 = load i32, i32* %3, align 4
  %14 = icmp slt i32 %12, %13
  br i1 %14, label %15, label %35

15:                                               ; preds = %11
  store i32 0, i32* %6, align 4
  br label %16

16:                                               ; preds = %28, %15
  %17 = load i32, i32* %6, align 4
  %18 = load i32, i32* %4, align 4
  %19 = icmp slt i32 %17, %18
  br i1 %19, label %20, label %31

20:                                               ; preds = %16
  %21 = load i32, i32* %5, align 4
  %22 = sext i32 %21 to i64
  %23 = getelementptr inbounds [100 x [100 x i32]], [100 x [100 x i32]]* %2, i64 0, i64 %22
  %24 = load i32, i32* %6, align 4
  %25 = sext i32 %24 to i64
  %26 = getelementptr inbounds [100 x i32], [100 x i32]* %23, i64 0, i64 %25
  %27 = call i32 (i8*, ...) @__isoc99_scanf(i8* getelementptr inbounds ([3 x i8], [3 x i8]* @.str.1, i64 0, i64 0), i32* %26)
  br label %28

28:                                               ; preds = %20
  %29 = load i32, i32* %6, align 4
  %30 = add nsw i32 %29, 1
  store i32 %30, i32* %6, align 4
  br label %16

31:                                               ; preds = %16
  br label %32

32:                                               ; preds = %31
  %33 = load i32, i32* %5, align 4
  %34 = add nsw i32 %33, 1
  store i32 %34, i32* %5, align 4
  br label %11

35:                                               ; preds = %11
  store i32 0, i32* %5, align 4
  br label %36

36:                                               ; preds = %224, %35
  %37 = load i32, i32* %5, align 4
  %38 = load i32, i32* %3, align 4
  %39 = add nsw i32 %38, 1
  %40 = sdiv i32 %39, 2
  %41 = icmp slt i32 %37, %40
  br i1 %41, label %42, label %48

42:                                               ; preds = %36
  %43 = load i32, i32* %5, align 4
  %44 = load i32, i32* %4, align 4
  %45 = add nsw i32 %44, 1
  %46 = sdiv i32 %45, 2
  %47 = icmp slt i32 %43, %46
  br label %48

48:                                               ; preds = %42, %36
  %49 = phi i1 [ false, %36 ], [ %47, %42 ]
  br i1 %49, label %50, label %227

50:                                               ; preds = %48
  %51 = load i32, i32* %5, align 4
  store i32 %51, i32* %6, align 4
  br label %52

52:                                               ; preds = %87, %50
  %53 = load i32, i32* %6, align 4
  %54 = load i32, i32* %4, align 4
  %55 = load i32, i32* %5, align 4
  %56 = sub nsw i32 %54, %55
  %57 = icmp slt i32 %53, %56
  br i1 %57, label %58, label %90

58:                                               ; preds = %52
  %59 = load i32, i32* %7, align 4
  %60 = load i32, i32* %4, align 4
  %61 = load i32, i32* %3, align 4
  %62 = mul nsw i32 %60, %61
  %63 = icmp slt i32 %59, %62
  br i1 %63, label %64, label %75

64:                                               ; preds = %58
  %65 = load [100 x i32]*, [100 x i32]** %8, align 8
  %66 = load i32, i32* %5, align 4
  %67 = sext i32 %66 to i64
  %68 = getelementptr inbounds [100 x i32], [100 x i32]* %65, i64 %67
  %69 = getelementptr inbounds [100 x i32], [100 x i32]* %68, i64 0, i64 0
  %70 = load i32, i32* %6, align 4
  %71 = sext i32 %70 to i64
  %72 = getelementptr inbounds i32, i32* %69, i64 %71
  %73 = load i32, i32* %72, align 4
  %74 = call i32 (i8*, ...) @printf(i8* getelementptr inbounds ([3 x i8], [3 x i8]* @.str.1, i64 0, i64 0), i32 %73)
  br label %75

75:                                               ; preds = %64, %58
  %76 = load i32, i32* %7, align 4
  %77 = load i32, i32* %4, align 4
  %78 = load i32, i32* %3, align 4
  %79 = mul nsw i32 %77, %78
  %80 = sub nsw i32 %79, 1
  %81 = icmp slt i32 %76, %80
  br i1 %81, label %82, label %84

82:                                               ; preds = %75
  %83 = call i32 (i8*, ...) @printf(i8* getelementptr inbounds ([2 x i8], [2 x i8]* @.str.2, i64 0, i64 0))
  br label %84

84:                                               ; preds = %82, %75
  %85 = load i32, i32* %7, align 4
  %86 = add nsw i32 %85, 1
  store i32 %86, i32* %7, align 4
  br label %87

87:                                               ; preds = %84
  %88 = load i32, i32* %6, align 4
  %89 = add nsw i32 %88, 1
  store i32 %89, i32* %6, align 4
  br label %52

90:                                               ; preds = %52
  %91 = load i32, i32* %5, align 4
  %92 = add nsw i32 %91, 1
  store i32 %92, i32* %6, align 4
  br label %93

93:                                               ; preds = %133, %90
  %94 = load i32, i32* %6, align 4
  %95 = load i32, i32* %3, align 4
  %96 = load i32, i32* %5, align 4
  %97 = sub nsw i32 %95, %96
  %98 = icmp slt i32 %94, %97
  br i1 %98, label %99, label %136

99:                                               ; preds = %93
  %100 = load i32, i32* %7, align 4
  %101 = load i32, i32* %4, align 4
  %102 = load i32, i32* %3, align 4
  %103 = mul nsw i32 %101, %102
  %104 = icmp slt i32 %100, %103
  br i1 %104, label %105, label %121

105:                                              ; preds = %99
  %106 = load [100 x i32]*, [100 x i32]** %8, align 8
  %107 = load i32, i32* %6, align 4
  %108 = sext i32 %107 to i64
  %109 = getelementptr inbounds [100 x i32], [100 x i32]* %106, i64 %108
  %110 = getelementptr inbounds [100 x i32], [100 x i32]* %109, i64 0, i64 0
  %111 = load i32, i32* %4, align 4
  %112 = sext i32 %111 to i64
  %113 = getelementptr inbounds i32, i32* %110, i64 %112
  %114 = getelementptr inbounds i32, i32* %113, i64 -1
  %115 = load i32, i32* %5, align 4
  %116 = sext i32 %115 to i64
  %117 = sub i64 0, %116
  %118 = getelementptr inbounds i32, i32* %114, i64 %117
  %119 = load i32, i32* %118, align 4
  %120 = call i32 (i8*, ...) @printf(i8* getelementptr inbounds ([3 x i8], [3 x i8]* @.str.1, i64 0, i64 0), i32 %119)
  br label %121

121:                                              ; preds = %105, %99
  %122 = load i32, i32* %7, align 4
  %123 = load i32, i32* %4, align 4
  %124 = load i32, i32* %3, align 4
  %125 = mul nsw i32 %123, %124
  %126 = sub nsw i32 %125, 1
  %127 = icmp slt i32 %122, %126
  br i1 %127, label %128, label %130

128:                                              ; preds = %121
  %129 = call i32 (i8*, ...) @printf(i8* getelementptr inbounds ([2 x i8], [2 x i8]* @.str.2, i64 0, i64 0))
  br label %130

130:                                              ; preds = %128, %121
  %131 = load i32, i32* %7, align 4
  %132 = add nsw i32 %131, 1
  store i32 %132, i32* %7, align 4
  br label %133

133:                                              ; preds = %130
  %134 = load i32, i32* %6, align 4
  %135 = add nsw i32 %134, 1
  store i32 %135, i32* %6, align 4
  br label %93

136:                                              ; preds = %93
  %137 = load i32, i32* %4, align 4
  %138 = load i32, i32* %5, align 4
  %139 = sub nsw i32 %137, %138
  %140 = sub nsw i32 %139, 2
  store i32 %140, i32* %6, align 4
  br label %141

141:                                              ; preds = %179, %136
  %142 = load i32, i32* %6, align 4
  %143 = load i32, i32* %5, align 4
  %144 = icmp sge i32 %142, %143
  br i1 %144, label %145, label %182

145:                                              ; preds = %141
  %146 = load i32, i32* %7, align 4
  %147 = load i32, i32* %4, align 4
  %148 = load i32, i32* %3, align 4
  %149 = mul nsw i32 %147, %148
  %150 = icmp slt i32 %146, %149
  br i1 %150, label %151, label %167

151:                                              ; preds = %145
  %152 = load [100 x i32]*, [100 x i32]** %8, align 8
  %153 = load i32, i32* %3, align 4
  %154 = sext i32 %153 to i64
  %155 = getelementptr inbounds [100 x i32], [100 x i32]* %152, i64 %154
  %156 = getelementptr inbounds [100 x i32], [100 x i32]* %155, i64 -1
  %157 = load i32, i32* %5, align 4
  %158 = sext i32 %157 to i64
  %159 = sub i64 0, %158
  %160 = getelementptr inbounds [100 x i32], [100 x i32]* %156, i64 %159
  %161 = getelementptr inbounds [100 x i32], [100 x i32]* %160, i64 0, i64 0
  %162 = load i32, i32* %6, align 4
  %163 = sext i32 %162 to i64
  %164 = getelementptr inbounds i32, i32* %161, i64 %163
  %165 = load i32, i32* %164, align 4
  %166 = call i32 (i8*, ...) @printf(i8* getelementptr inbounds ([3 x i8], [3 x i8]* @.str.1, i64 0, i64 0), i32 %165)
  br label %167

167:                                              ; preds = %151, %145
  %168 = load i32, i32* %7, align 4
  %169 = load i32, i32* %4, align 4
  %170 = load i32, i32* %3, align 4
  %171 = mul nsw i32 %169, %170
  %172 = sub nsw i32 %171, 1
  %173 = icmp slt i32 %168, %172
  br i1 %173, label %174, label %176

174:                                              ; preds = %167
  %175 = call i32 (i8*, ...) @printf(i8* getelementptr inbounds ([2 x i8], [2 x i8]* @.str.2, i64 0, i64 0))
  br label %176

176:                                              ; preds = %174, %167
  %177 = load i32, i32* %7, align 4
  %178 = add nsw i32 %177, 1
  store i32 %178, i32* %7, align 4
  br label %179

179:                                              ; preds = %176
  %180 = load i32, i32* %6, align 4
  %181 = add nsw i32 %180, -1
  store i32 %181, i32* %6, align 4
  br label %141

182:                                              ; preds = %141
  %183 = load i32, i32* %3, align 4
  %184 = load i32, i32* %5, align 4
  %185 = sub nsw i32 %183, %184
  %186 = sub nsw i32 %185, 2
  store i32 %186, i32* %6, align 4
  br label %187

187:                                              ; preds = %220, %182
  %188 = load i32, i32* %6, align 4
  %189 = load i32, i32* %5, align 4
  %190 = icmp sgt i32 %188, %189
  br i1 %190, label %191, label %223

191:                                              ; preds = %187
  %192 = load i32, i32* %7, align 4
  %193 = load i32, i32* %4, align 4
  %194 = load i32, i32* %3, align 4
  %195 = mul nsw i32 %193, %194
  %196 = icmp slt i32 %192, %195
  br i1 %196, label %197, label %208

197:                                              ; preds = %191
  %198 = load [100 x i32]*, [100 x i32]** %8, align 8
  %199 = load i32, i32* %6, align 4
  %200 = sext i32 %199 to i64
  %201 = getelementptr inbounds [100 x i32], [100 x i32]* %198, i64 %200
  %202 = getelementptr inbounds [100 x i32], [100 x i32]* %201, i64 0, i64 0
  %203 = load i32, i32* %5, align 4
  %204 = sext i32 %203 to i64
  %205 = getelementptr inbounds i32, i32* %202, i64 %204
  %206 = load i32, i32* %205, align 4
  %207 = call i32 (i8*, ...) @printf(i8* getelementptr inbounds ([3 x i8], [3 x i8]* @.str.1, i64 0, i64 0), i32 %206)
  br label %208

208:                                              ; preds = %197, %191
  %209 = load i32, i32* %7, align 4
  %210 = load i32, i32* %4, align 4
  %211 = load i32, i32* %3, align 4
  %212 = mul nsw i32 %210, %211
  %213 = sub nsw i32 %212, 1
  %214 = icmp slt i32 %209, %213
  br i1 %214, label %215, label %217

215:                                              ; preds = %208
  %216 = call i32 (i8*, ...) @printf(i8* getelementptr inbounds ([2 x i8], [2 x i8]* @.str.2, i64 0, i64 0))
  br label %217

217:                                              ; preds = %215, %208
  %218 = load i32, i32* %7, align 4
  %219 = add nsw i32 %218, 1
  store i32 %219, i32* %7, align 4
  br label %220

220:                                              ; preds = %217
  %221 = load i32, i32* %6, align 4
  %222 = add nsw i32 %221, -1
  store i32 %222, i32* %6, align 4
  br label %187

223:                                              ; preds = %187
  br label %224

224:                                              ; preds = %223
  %225 = load i32, i32* %5, align 4
  %226 = add nsw i32 %225, 1
  store i32 %226, i32* %5, align 4
  br label %36

227:                                              ; preds = %48
  ret i32 0
}

declare dso_local i32 @__isoc99_scanf(i8*, ...) #1

declare dso_local i32 @printf(i8*, ...) #1


!llvm.module.flags = !{!0}
!llvm.ident = !{!1}

!0 = !{i32 1, !"wchar_size", i32 4}
!1 = !{!"clang version 10.0.0-4ubuntu1 "}
